target datalayout = "e-m:e-p270:32:32-p271:32:32-p272:64:64-i64:64-i128:128-f80:128-n8:16:32:64-S128"
target triple = "x86_64-pc-linux-gnu"

%struct.BlockDirtyBitmapSha256 = type { ptr }

; Function Attrs: nounwind sspstrong uwtable
define dso_local ptr @qmp_x_debug_block_dirty_bitmap_sha256(ptr noundef %0, ptr noundef %1, ptr noundef %2) #0 {
  %4 = alloca ptr, align 8
  %5 = alloca ptr, align 8
  %6 = alloca ptr, align 8
  %7 = alloca ptr, align 8
  %8 = alloca ptr, align 8
  %9 = alloca ptr, align 8
  %10 = alloca ptr, align 8
  %11 = alloca ptr, align 8
  %12 = alloca i32, align 4
  %13 = alloca i64, align 8
  %14 = alloca i64, align 8
  %15 = alloca ptr, align 8
  %16 = alloca ptr, align 8
  store ptr %0, ptr %5, align 8
  store ptr %1, ptr %6, align 8
  store ptr %2, ptr %7, align 8
  call void @llvm.lifetime.start.p0(i64 8, ptr %8) #16
  store ptr null, ptr %8, align 8, !annotation !4
  call void @llvm.lifetime.start.p0(i64 8, ptr %9) #16
  store ptr null, ptr %9, align 8, !annotation !4
  call void @llvm.lifetime.start.p0(i64 8, ptr %10) #16
  store ptr null, ptr %10, align 8
  call void @llvm.lifetime.start.p0(i64 8, ptr %11) #16
  store ptr null, ptr %11, align 8, !annotation !4
  %17 = load ptr, ptr %5, align 8
  %18 = load ptr, ptr %6, align 8
  %19 = load ptr, ptr %7, align 8
  %20 = call ptr @block_dirty_bitmap_lookup(ptr noundef %17, ptr noundef %18, ptr noundef %9, ptr noundef %19)
  store ptr %20, ptr %8, align 8
  %21 = load ptr, ptr %8, align 8
  %22 = icmp ne ptr %21, null
  br i1 %22, label %23, label %26

23:                                               ; preds = %3
  %24 = load ptr, ptr %9, align 8
  %25 = icmp ne ptr %24, null
  br i1 %25, label %27, label %26

26:                                               ; preds = %23, %3
  store ptr null, ptr %4, align 8
  store i32 1, ptr %12, align 4
  br label %68

27:                                               ; preds = %23
  %28 = load ptr, ptr %8, align 8
  %29 = load ptr, ptr %7, align 8
  %30 = call ptr @bdrv_dirty_bitmap_sha256(ptr noundef %28, ptr noundef %29)
  store ptr %30, ptr %11, align 8
  %31 = load ptr, ptr %11, align 8
  %32 = icmp eq ptr %31, null
  br i1 %32, label %33, label %34

33:                                               ; preds = %27
  store ptr null, ptr %4, align 8
  store i32 1, ptr %12, align 4
  br label %68

34:                                               ; preds = %27
  call void @llvm.lifetime.start.p0(i64 8, ptr %13) #16
  store i64 1, ptr %13, align 8
  call void @llvm.lifetime.start.p0(i64 8, ptr %14) #16
  store i64 8, ptr %14, align 8
  call void @llvm.lifetime.start.p0(i64 8, ptr %15) #16
  store ptr null, ptr %15, align 8, !annotation !4
  %35 = load i64, ptr %14, align 8
  %36 = icmp eq i64 %35, 1
  br i1 %36, label %37, label %40

37:                                               ; preds = %34
  %38 = load i64, ptr %13, align 8
  %39 = call noalias ptr @g_malloc(i64 noundef %38) #19
  store ptr %39, ptr %15, align 8
  br label %61

40:                                               ; preds = %34
  %41 = load i64, ptr %13, align 8
  %42 = call i1 @llvm.is.constant.i64(i64 %41)
  br i1 %42, label %43, label %56

43:                                               ; preds = %40
  %44 = load i64, ptr %14, align 8
  %45 = icmp eq i64 %44, 0
  br i1 %45, label %51, label %46

46:                                               ; preds = %43
  %47 = load i64, ptr %13, align 8
  %48 = load i64, ptr %14, align 8
  %49 = udiv i64 -1, %48
  %50 = icmp ule i64 %47, %49
  br i1 %50, label %51, label %56

51:                                               ; preds = %46, %43
  %52 = load i64, ptr %13, align 8
  %53 = load i64, ptr %14, align 8
  %54 = mul i64 %52, %53
  %55 = call noalias ptr @g_malloc(i64 noundef %54) #19
  store ptr %55, ptr %15, align 8
  br label %60

56:                                               ; preds = %46, %40
  %57 = load i64, ptr %13, align 8
  %58 = load i64, ptr %14, align 8
  %59 = call noalias ptr @g_malloc_n(i64 noundef %57, i64 noundef %58) #20
  store ptr %59, ptr %15, align 8
  br label %60

60:                                               ; preds = %56, %51
  br label %61

61:                                               ; preds = %60, %37
  %62 = load ptr, ptr %15, align 8
  store ptr %62, ptr %16, align 8
  call void @llvm.lifetime.end.p0(i64 8, ptr %15) #16
  call void @llvm.lifetime.end.p0(i64 8, ptr %14) #16
  call void @llvm.lifetime.end.p0(i64 8, ptr %13) #16
  %63 = load ptr, ptr %16, align 8
  store ptr %63, ptr %10, align 8
  %64 = load ptr, ptr %11, align 8
  %65 = load ptr, ptr %10, align 8
  %66 = getelementptr inbounds nuw %struct.BlockDirtyBitmapSha256, ptr %65, i32 0, i32 0
  store ptr %64, ptr %66, align 8
  %67 = load ptr, ptr %10, align 8
  store ptr %67, ptr %4, align 8
  store i32 1, ptr %12, align 4
  br label %68

68:                                               ; preds = %61, %33, %26
  call void @llvm.lifetime.end.p0(i64 8, ptr %11) #16
  call void @llvm.lifetime.end.p0(i64 8, ptr %10) #16
  call void @llvm.lifetime.end.p0(i64 8, ptr %9) #16
  call void @llvm.lifetime.end.p0(i64 8, ptr %8) #16
  %69 = load ptr, ptr %4, align 8
  ret ptr %69
}