; Function Attrs: nounwind sspstrong uwtable
define dso_local noalias noundef ptr @qmp_x_debug_block_dirty_bitmap_sha256(ptr noundef %0, ptr noundef %1, ptr noundef %2) local_unnamed_addr #0 {
  %4 = alloca ptr, align 8
  call void @llvm.lifetime.start.p0(i64 8, ptr nonnull %4) #14
  store ptr null, ptr %4, align 8, !annotation !10
  %5 = call ptr @block_dirty_bitmap_lookup(ptr noundef %0, ptr noundef %1, ptr noundef nonnull %4, ptr noundef %2) #14
  %6 = icmp ne ptr %5, null
  %7 = load ptr, ptr %4, align 8
  %8 = icmp ne ptr %7, null
  %or.cond = select i1 %6, i1 %8, i1 false
  br i1 %or.cond, label %9, label %14

9:                                                ; preds = %3
  %10 = call ptr @bdrv_dirty_bitmap_sha256(ptr noundef nonnull %5, ptr noundef %2) #14
  %11 = icmp eq ptr %10, null
  br i1 %11, label %14, label %12

12:                                               ; preds = %9
  %13 = call noalias dereferenceable_or_null(8) ptr @g_malloc(i64 noundef 8) #18
  store ptr %10, ptr %13, align 8
  br label %14

14:                                               ; preds = %9, %3, %12
  %.0 = phi ptr [ %13, %12 ], [ null, %3 ], [ null, %9 ]
  call void @llvm.lifetime.end.p0(i64 8, ptr nonnull %4) #14
  ret ptr %.0
}